target datalayout = "e-m:e-p270:32:32-p271:32:32-p272:64:64-i64:64-i128:128-f80:128-n8:16:32:64-S128"
target triple = "x86_64-pc-linux-gnu"

%struct.SDL_Gamepad = type { ptr, i32, ptr, i32, i32, ptr, i32, ptr, ptr, ptr, i64, ptr }
%struct.SDL_GamepadBinding = type { i32, %union.anon, i32, %union.anon.1 }
%union.anon = type { %struct.anon }
%struct.anon = type { i32, i32, i32 }
%union.anon.1 = type { %struct.anon.2 }
%struct.anon.2 = type { i32, i32, i32 }

@.str.4 = private unnamed_addr constant [26 x i8] c"Parameter '%s' is invalid\00", align 1
@.str.5 = private unnamed_addr constant [8 x i8] c"gamepad\00", align 1

; Function Attrs: nounwind uwtable
define hidden ptr @SDL_GetGamepadBindings_REAL(ptr noundef %0, ptr noundef %1) #0 {
  %3 = alloca ptr, align 8
  %4 = alloca ptr, align 8
  %5 = alloca ptr, align 8
  %6 = alloca ptr, align 8
  %7 = alloca i32, align 4
  %8 = alloca i64, align 8
  %9 = alloca i64, align 8
  %10 = alloca ptr, align 8
  %11 = alloca i32, align 4
  store ptr %0, ptr %4, align 8
  store ptr %1, ptr %5, align 8
  call void @llvm.lifetime.start.p0(i64 8, ptr %6) #8
  store ptr null, ptr %6, align 8
  %12 = load ptr, ptr %5, align 8
  %13 = icmp ne ptr %12, null
  br i1 %13, label %14, label %16

14:                                               ; preds = %2
  %15 = load ptr, ptr %5, align 8
  store i32 0, ptr %15, align 4
  br label %16

16:                                               ; preds = %14, %2
  call void @SDL_LockJoysticks_REAL()
  %17 = load ptr, ptr %4, align 8
  %18 = call zeroext i1 @SDL_ObjectValid(ptr noundef %17, i32 noundef 5)
  br i1 %18, label %19, label %24

19:                                               ; preds = %16
  %20 = load ptr, ptr %4, align 8
  %21 = getelementptr inbounds nuw %struct.SDL_Gamepad, ptr %20, i32 0, i32 0
  %22 = load ptr, ptr %21, align 8
  %23 = call zeroext i1 @SDL_IsJoystickValid(ptr noundef %22)
  br i1 %23, label %26, label %24

24:                                               ; preds = %19, %16
  %25 = call zeroext i1 (ptr, ...) @SDL_SetError_REAL(ptr noundef @.str.4, ptr noundef @.str.5)
  call void @SDL_UnlockJoysticks_REAL()
  store ptr null, ptr %3, align 8
  store i32 1, ptr %7, align 4
  br label %87

26:                                               ; preds = %19
  call void @llvm.lifetime.start.p0(i64 8, ptr %8) #8
  %27 = load ptr, ptr %4, align 8
  %28 = getelementptr inbounds nuw %struct.SDL_Gamepad, ptr %27, i32 0, i32 6
  %29 = load i32, ptr %28, align 8
  %30 = add nsw i32 %29, 1
  %31 = sext i32 %30 to i64
  %32 = mul i64 %31, 8
  store i64 %32, ptr %8, align 8
  call void @llvm.lifetime.start.p0(i64 8, ptr %9) #8
  %33 = load ptr, ptr %4, align 8
  %34 = getelementptr inbounds nuw %struct.SDL_Gamepad, ptr %33, i32 0, i32 6
  %35 = load i32, ptr %34, align 8
  %36 = sext i32 %35 to i64
  %37 = mul i64 %36, 32
  store i64 %37, ptr %9, align 8
  %38 = load i64, ptr %8, align 8
  %39 = load i64, ptr %9, align 8
  %40 = add i64 %38, %39
  %41 = call noalias ptr @SDL_malloc_REAL(i64 noundef %40)
  store ptr %41, ptr %6, align 8
  %42 = load ptr, ptr %6, align 8
  %43 = icmp ne ptr %42, null
  br i1 %43, label %44, label %85

44:                                               ; preds = %26
  call void @llvm.lifetime.start.p0(i64 8, ptr %10) #8
  %45 = load ptr, ptr %6, align 8
  %46 = load i64, ptr %8, align 8
  %47 = getelementptr inbounds nuw i8, ptr %45, i64 %46
  store ptr %47, ptr %10, align 8
  call void @llvm.lifetime.start.p0(i64 4, ptr %11) #8
  store i32 0, ptr %11, align 4
  br label %48

48:                                               ; preds = %67, %44
  %49 = load i32, ptr %11, align 4
  %50 = load ptr, ptr %4, align 8
  %51 = getelementptr inbounds nuw %struct.SDL_Gamepad, ptr %50, i32 0, i32 6
  %52 = load i32, ptr %51, align 8
  %53 = icmp slt i32 %49, %52
  br i1 %53, label %54, label %72

54:                                               ; preds = %48
  %55 = load ptr, ptr %10, align 8
  %56 = load ptr, ptr %6, align 8
  %57 = load i32, ptr %11, align 4
  %58 = sext i32 %57 to i64
  %59 = getelementptr inbounds ptr, ptr %56, i64 %58
  store ptr %55, ptr %59, align 8
  %60 = load ptr, ptr %10, align 8
  %61 = load ptr, ptr %4, align 8
  %62 = getelementptr inbounds nuw %struct.SDL_Gamepad, ptr %61, i32 0, i32 7
  %63 = load ptr, ptr %62, align 8
  %64 = load i32, ptr %11, align 4
  %65 = sext i32 %64 to i64
  %66 = getelementptr inbounds %struct.SDL_GamepadBinding, ptr %63, i64 %65
  call void @llvm.memcpy.p0.p0.i64(ptr align 4 %60, ptr align 4 %66, i64 32, i1 false)
  br label %67

67:                                               ; preds = %54
  %68 = load i32, ptr %11, align 4
  %69 = add nsw i32 %68, 1
  store i32 %69, ptr %11, align 4
  %70 = load ptr, ptr %10, align 8
  %71 = getelementptr inbounds nuw %struct.SDL_GamepadBinding, ptr %70, i32 1
  store ptr %71, ptr %10, align 8
  br label %48, !llvm.loop !47

72:                                               ; preds = %48
  %73 = load ptr, ptr %6, align 8
  %74 = load i32, ptr %11, align 4
  %75 = sext i32 %74 to i64
  %76 = getelementptr inbounds ptr, ptr %73, i64 %75
  store ptr null, ptr %76, align 8
  %77 = load ptr, ptr %5, align 8
  %78 = icmp ne ptr %77, null
  br i1 %78, label %79, label %84

79:                                               ; preds = %72
  %80 = load ptr, ptr %4, align 8
  %81 = getelementptr inbounds nuw %struct.SDL_Gamepad, ptr %80, i32 0, i32 6
  %82 = load i32, ptr %81, align 8
  %83 = load ptr, ptr %5, align 8
  store i32 %82, ptr %83, align 4
  br label %84

84:                                               ; preds = %79, %72
  call void @llvm.lifetime.end.p0(i64 4, ptr %11) #8
  call void @llvm.lifetime.end.p0(i64 8, ptr %10) #8
  br label %85

85:                                               ; preds = %84, %26
  call void @llvm.lifetime.end.p0(i64 8, ptr %9) #8
  call void @llvm.lifetime.end.p0(i64 8, ptr %8) #8
  call void @SDL_UnlockJoysticks_REAL()
  %86 = load ptr, ptr %6, align 8
  store ptr %86, ptr %3, align 8
  store i32 1, ptr %7, align 4
  br label %87

87:                                               ; preds = %85, %24
  call void @llvm.lifetime.end.p0(i64 8, ptr %6) #8
  %88 = load ptr, ptr %3, align 8
  ret ptr %88
}