; Function Attrs: nounwind uwtable
define hidden ptr @SDL_GetGamepadBindings_REAL(ptr noundef %0, ptr noundef writeonly captures(address_is_null) %1) local_unnamed_addr #0 {
  %.not = icmp eq ptr %1, null
  br i1 %.not, label %4, label %3

3:                                                ; preds = %2
  store i32 0, ptr %1, align 4
  br label %4

4:                                                ; preds = %3, %2
  tail call void @SDL_LockJoysticks_REAL() #10
  %5 = tail call zeroext i1 @SDL_ObjectValid(ptr noundef %0, i32 noundef 5) #10
  br i1 %5, label %6, label %9

6:                                                ; preds = %4
  %7 = load ptr, ptr %0, align 8
  %8 = tail call zeroext i1 @SDL_IsJoystickValid(ptr noundef %7) #10
  br i1 %8, label %11, label %9

9:                                                ; preds = %6, %4
  %10 = tail call zeroext i1 (ptr, ...) @SDL_SetError_REAL(ptr noundef nonnull @.str.4, ptr noundef nonnull @.str.5) #10
  br label %34

11:                                               ; preds = %6
  %12 = getelementptr inbounds nuw i8, ptr %0, i64 40
  %13 = load i32, ptr %12, align 8
  %14 = add nsw i32 %13, 1
  %15 = sext i32 %14 to i64
  %16 = shl nsw i64 %15, 3
  %17 = sext i32 %13 to i64
  %18 = shl nsw i64 %17, 5
  %19 = add nsw i64 %16, %18
  %20 = tail call noalias ptr @SDL_malloc_REAL(i64 noundef %19) #10
  %.not31 = icmp eq ptr %20, null
  br i1 %.not31, label %34, label %21

21:                                               ; preds = %11
  %22 = load i32, ptr %12, align 8
  %23 = icmp sgt i32 %22, 0
  br i1 %23, label %.lr.ph, label %._crit_edge

.lr.ph:                                           ; preds = %21
  %24 = getelementptr inbounds nuw i8, ptr %20, i64 %16
  %25 = getelementptr inbounds nuw i8, ptr %0, i64 48
  %26 = load ptr, ptr %25, align 8
  %wide.trip.count = zext nneg i32 %22 to i64
  br label %27

27:                                               ; preds = %.lr.ph, %27
  %indvars.iv = phi i64 [ 0, %.lr.ph ], [ %indvars.iv.next, %27 ]
  %.02732 = phi ptr [ %24, %.lr.ph ], [ %30, %27 ]
  %28 = getelementptr inbounds nuw ptr, ptr %20, i64 %indvars.iv
  store ptr %.02732, ptr %28, align 8
  %29 = getelementptr inbounds nuw %struct.SDL_GamepadBinding, ptr %26, i64 %indvars.iv
  tail call void @llvm.memcpy.p0.p0.i64(ptr noundef nonnull align 4 dereferenceable(32) %.02732, ptr noundef nonnull align 4 dereferenceable(32) %29, i64 32, i1 false)
  %indvars.iv.next = add nuw nsw i64 %indvars.iv, 1
  %30 = getelementptr inbounds nuw i8, ptr %.02732, i64 32
  %exitcond.not = icmp eq i64 %indvars.iv.next, %wide.trip.count
  br i1 %exitcond.not, label %._crit_edge.loopexit, label %27, !llvm.loop !56

._crit_edge.loopexit:                             ; preds = %27
  %31 = zext nneg i32 %22 to i64
  br label %._crit_edge

._crit_edge:                                      ; preds = %21, %._crit_edge.loopexit
  %.0.lcssa = phi i64 [ %31, %._crit_edge.loopexit ], [ 0, %21 ]
  %32 = getelementptr inbounds nuw ptr, ptr %20, i64 %.0.lcssa
  store ptr null, ptr %32, align 8
  br i1 %.not, label %34, label %33

33:                                               ; preds = %._crit_edge
  store i32 %22, ptr %1, align 4
  br label %34

34:                                               ; preds = %11, %33, %._crit_edge, %9
  %.028 = phi ptr [ null, %9 ], [ %20, %._crit_edge ], [ %20, %33 ], [ %20, %11 ]
  tail call void @SDL_UnlockJoysticks_REAL() #10
  ret ptr %.028
}